target datalayout = "e-m:e-p270:32:32-p271:32:32-p272:64:64-i64:64-i128:128-f80:128-n8:16:32:64-S128"
target triple = "x86_64-pc-linux-gnu"

%class.LogMessageBuffer = type { ptr, i64, i64, ptr, i64, i64, ptr, i8, i32, ptr }

@_ZTV16LogMessageBuffer = hidden unnamed_addr constant { [3 x ptr] } { [3 x ptr] [ptr null, ptr null, ptr @_ZN16LogMessageBuffer6vwriteEN8LogLevel4typeEPKcP13__va_list_tag] }, align 8

; Function Attrs: mustprogress nounwind uwtable
define hidden void @_ZN16LogMessageBufferC2Ev(ptr noundef nonnull align 8 dereferenceable(72) %0) unnamed_addr #1 align 2 {
  %2 = alloca ptr, align 8
  store ptr %0, ptr %2, align 8
  %3 = load ptr, ptr %2, align 8
  store ptr getelementptr inbounds inrange(-16, 8) ({ [3 x ptr] }, ptr @_ZTV16LogMessageBuffer, i32 0, i32 0, i32 2), ptr %3, align 8
  %4 = getelementptr inbounds %class.LogMessageBuffer, ptr %3, i32 0, i32 1
  store i64 0, ptr %4, align 8
  %5 = getelementptr inbounds %class.LogMessageBuffer, ptr %3, i32 0, i32 2
  store i64 0, ptr %5, align 8
  %6 = getelementptr inbounds %class.LogMessageBuffer, ptr %3, i32 0, i32 3
  store ptr null, ptr %6, align 8
  %7 = getelementptr inbounds %class.LogMessageBuffer, ptr %3, i32 0, i32 4
  store i64 0, ptr %7, align 8
  %8 = getelementptr inbounds %class.LogMessageBuffer, ptr %3, i32 0, i32 5
  store i64 0, ptr %8, align 8
  %9 = getelementptr inbounds %class.LogMessageBuffer, ptr %3, i32 0, i32 6
  store ptr null, ptr %9, align 8
  %10 = getelementptr inbounds %class.LogMessageBuffer, ptr %3, i32 0, i32 7
  store i8 0, ptr %10, align 8
  %11 = getelementptr inbounds %class.LogMessageBuffer, ptr %3, i32 0, i32 8
  store i32 0, ptr %11, align 4
  %12 = getelementptr inbounds %class.LogMessageBuffer, ptr %3, i32 0, i32 9
  store ptr null, ptr %12, align 8
  ret void
}