; Function Attrs: mustprogress nofree norecurse nosync nounwind willreturn memory(argmem: write) uwtable
define hidden void @_ZN16LogMessageBufferC2Ev(ptr nocapture noundef nonnull writeonly align 8 dereferenceable(72) %0) unnamed_addr #0 align 2 {
  store ptr getelementptr inbounds inrange(-16, 8) (i8, ptr @_ZTV16LogMessageBuffer, i64 16), ptr %0, align 8
  %2 = getelementptr inbounds i8, ptr %0, i64 8
  %3 = getelementptr inbounds i8, ptr %0, i64 60
  store i32 0, ptr %3, align 4
  %4 = getelementptr inbounds i8, ptr %0, i64 64
  store ptr null, ptr %4, align 8
  tail call void @llvm.memset.p0.i64(ptr noundef nonnull align 8 dereferenceable(49) %2, i8 0, i64 49, i1 false)
  ret void
}